(dp1
S'Server-526'
p2
(dp3
S'mgmt_url'
p4
S'http://62.40.110.23:9797'
p5
sS'data_url'
p6
S'http://10.10.100.40:9696'
p7
sS'type'
p8
S'server'
p9
ssS'Server-148'
p10
(dp11
S'mgmt_url'
p12
S'http://62.40.110.93:9797'
p13
sS'data_url'
p14
S'http://10.10.100.10:9696'
p15
sS'type'
p16
S'server'
p17
ssS'Server-261'
p18
(dp19
S'mgmt_url'
p20
S'http://62.40.110.60:9797'
p21
sS'data_url'
p22
S'http://10.10.100.50:9696'
p23
sS'type'
p24
S'server'
p25
ss.