(dp1
S'Server-290'
p2
(dp3
S'mgmt_url'
p4
S'http://10.10.253.2:9797'
p5
sS'data_url'
p6
S'http://10.10.253.2:9696'
p7
sS'type'
p8
S'client'
p9
ssS'Server-477'
p10
(dp11
S'mgmt_url'
p12
S'http://62.40.110.69:9797'
p13
sS'data_url'
p14
S'http://10.10.100.30:9696'
p15
sS'type'
p16
S'server'
p17
ssS'Client-219'
p18
(dp19
S'mgmt_url'
p20
S'http://62.40.110.135:9797'
p21
sS'data_url'
p22
S'http://10.10.100.100:9696'
p23
sS'type'
p24
S'client'
p25
ssS'Server-115'
p26
(dp27
S'mgmt_url'
p28
S'http://62.40.110.69:9797'
p29
sS'data_url'
p30
S'http://10.10.100.30:9696'
p31
sS'type'
p32
S'server'
p33
ssS'Server-807'
p34
(dp35
S'mgmt_url'
p36
S'http://62.40.110.93:9797'
p37
sS'data_url'
p38
S'http://10.10.100.10:9696'
p39
sS'type'
p40
S'server'
p41
ssI50
(dp42
S'mgmt_url'
p43
S'http://62.40.110.135:9797'
p44
sS'data_url'
p45
S'http://10.10.100.100:9696'
p46
sS'type'
p47
S'client'
p48
ssS'Server-126'
p49
(dp50
S'mgmt_url'
p51
S'http://10.10.253.3:9797'
p52
sS'data_url'
p53
S'http://10.10.254.3:9696'
p54
sS'type'
p55
S'server'
p56
ssS'Server-620'
p57
(dp58
S'mgmt_url'
p59
S'http://62.40.110.94:9797'
p60
sS'data_url'
p61
S'http://10.10.100.20:9696'
p62
sS'type'
p63
S'server'
p64
ssS'Server-389'
p65
(dp66
S'mgmt_url'
p67
S'http://62.40.110.94:9797'
p68
sS'data_url'
p69
S'http://10.10.100.20:9696'
p70
sS'type'
p71
S'server'
p72
ssS'Client-106'
p73
(dp74
S'mgmt_url'
p75
S'http://62.40.110.135:9797'
p76
sS'data_url'
p77
S'http://10.10.100.100:9696'
p78
sS'type'
p79
S'client'
p80
ssS'Server-528'
p81
(dp82
S'mgmt_url'
p83
S'http://62.40.110.93:9797'
p84
sS'data_url'
p85
S'http://10.10.100.10:9696'
p86
sS'type'
p87
S'server'
p88
ssS'Server-1000'
p89
(dp90
S'mgmt_url'
p91
S'http://62.40.110.94:9797'
p92
sS'data_url'
p93
S'http://10.10.100.20:9696'
p94
sS'type'
p95
S'server'
p96
ssS'Server-895'
p97
(dp98
S'mgmt_url'
p99
S'http://62.40.110.94:9797'
p100
sS'data_url'
p101
S'http://10.10.100.20:9696'
p102
sS'type'
p103
S'server'
p104
ss.